; Function Attrs: mustprogress uwtable
define internal noundef zeroext i1 @_ZN8facebook5velox9functions9prestosql12_GLOBAL__N_19IfMatcher5matchERKSt10shared_ptrIKNS0_4core10ITypedExprEE(ptr nocapture noundef nonnull readonly align 8 dereferenceable(32) %this, ptr nocapture noundef nonnull readonly align 8 dereferenceable(16) %expr) unnamed_addr #0 align 2 {
entry:
  %0 = load ptr, ptr %expr, align 8
  %1 = icmp eq ptr %0, null
  br i1 %1, label %return, label %dynamic_cast.end

dynamic_cast.end:                                 ; preds = %entry
  %2 = tail call ptr @__dynamic_cast(ptr nonnull %0, ptr nonnull @_ZTIN8facebook5velox4core10ITypedExprE, ptr nonnull @_ZTIN8facebook5velox4core13CallTypedExprE, i64 0) #17
  %tobool.not = icmp eq ptr %2, null
  br i1 %tobool.not, label %return, label %if.then

if.then:                                          ; preds = %dynamic_cast.end
  %vtable = load ptr, ptr %2, align 8
  %vfn = getelementptr inbounds i8, ptr %vtable, i64 64
  %3 = load ptr, ptr %vfn, align 8
  %call3 = tail call noundef nonnull align 8 dereferenceable(32) ptr %3(ptr noundef nonnull align 8 dereferenceable(80) %2)
  %call.i = tail call noundef i32 @_ZNKSt7__cxx1112basic_stringIcSt11char_traitsIcESaIcEE7compareEPKc(ptr noundef nonnull align 8 dereferenceable(32) %call3, ptr noundef nonnull @.str.1) #17
  %cmp.i = icmp eq i32 %call.i, 0
  br i1 %cmp.i, label %land.lhs.true, label %return

land.lhs.true:                                    ; preds = %if.then
  %inputs_.i = getelementptr inbounds i8, ptr %2, i64 24
  %inputMatchers_ = getelementptr inbounds i8, ptr %this, i64 8
  %_M_finish.i.i = getelementptr inbounds i8, ptr %2, i64 32
  %4 = load ptr, ptr %_M_finish.i.i, align 8
  %5 = load ptr, ptr %inputs_.i, align 8
  %cmp10.i = icmp eq ptr %4, %5
  br i1 %cmp10.i, label %return, label %for.body.i

for.cond.i:                                       ; preds = %for.body.i
  %indvars.iv.next.i = add nuw i64 %indvars.iv.i, 1
  %6 = load ptr, ptr %_M_finish.i.i, align 8
  %7 = load ptr, ptr %inputs_.i, align 8
  %sub.ptr.lhs.cast.i.i = ptrtoint ptr %6 to i64
  %sub.ptr.rhs.cast.i.i = ptrtoint ptr %7 to i64
  %sub.ptr.sub.i.i = sub i64 %sub.ptr.lhs.cast.i.i, %sub.ptr.rhs.cast.i.i
  %sub.ptr.div.i.i = ashr exact i64 %sub.ptr.sub.i.i, 4
  %cmp.not.i = icmp ugt i64 %sub.ptr.div.i.i, %indvars.iv.next.i
  br i1 %cmp.not.i, label %for.body.i, label %return, !llvm.loop !59

for.body.i:                                       ; preds = %land.lhs.true, %for.cond.i
  %indvars.iv.i = phi i64 [ %indvars.iv.next.i, %for.cond.i ], [ 0, %land.lhs.true ]
  %8 = phi ptr [ %7, %for.cond.i ], [ %5, %land.lhs.true ]
  %matchers.val.i = load ptr, ptr %inputMatchers_, align 8
  %add.ptr.i.i = getelementptr inbounds %"class.std::shared_ptr.5", ptr %matchers.val.i, i64 %indvars.iv.i
  %call2.val.i = load ptr, ptr %add.ptr.i.i, align 8
  %add.ptr.i5.i = getelementptr inbounds %"class.std::shared_ptr", ptr %8, i64 %indvars.iv.i
  %vtable.i = load ptr, ptr %call2.val.i, align 8
  %9 = load ptr, ptr %vtable.i, align 8
  %call6.i = tail call noundef zeroext i1 %9(ptr noundef nonnull align 8 dereferenceable(8) %call2.val.i, ptr noundef nonnull align 8 dereferenceable(16) %add.ptr.i5.i)
  br i1 %call6.i, label %for.cond.i, label %return

return:                                           ; preds = %for.cond.i, %for.body.i, %land.lhs.true, %entry, %dynamic_cast.end, %if.then
  %retval.0 = phi i1 [ false, %if.then ], [ false, %dynamic_cast.end ], [ false, %entry ], [ true, %land.lhs.true ], [ %call6.i, %for.body.i ], [ %call6.i, %for.cond.i ]
  ret i1 %retval.0
}